target datalayout = "e-m:e-p270:32:32-p271:32:32-p272:64:64-i64:64-i128:128-f80:128-n8:16:32:64-S128"
target triple = "x86_64-pc-linux-gnu"

@.str.14 = private unnamed_addr constant [33 x i8] c"../openssl/test/quicfaultstest.c\00", align 1
@cert = internal global ptr null, align 8
@privkey = internal global ptr null, align 8
@.str.23 = private unnamed_addr constant [13 x i8] c"Hello World!\00", align 1
@.str.24 = private unnamed_addr constant [5 x i8] c"cctx\00", align 1
@.str.25 = private unnamed_addr constant [90 x i8] c"qtest_create_quic_objects(NULL, cctx, NULL, cert, privkey, 0, &qtserv, &cssl, NULL, NULL)\00", align 1
@.str.26 = private unnamed_addr constant [43 x i8] c"qtest_create_quic_connection(qtserv, cssl)\00", align 1
@.str.27 = private unnamed_addr constant [29 x i8] c"SSL_write(cssl, msg, msglen)\00", align 1
@.str.28 = private unnamed_addr constant [7 x i8] c"msglen\00", align 1
@.str.29 = private unnamed_addr constant [64 x i8] c"ossl_quic_tserver_read(qtserv, 0, buf, sizeof(buf), &bytesread)\00", align 1
@.str.30 = private unnamed_addr constant [4 x i8] c"msg\00", align 1
@.str.31 = private unnamed_addr constant [4 x i8] c"buf\00", align 1

; Function Attrs: nounwind uwtable
define internal i32 @test_basic() #0 {
  %1 = alloca i32, align 4
  %2 = alloca ptr, align 8
  %3 = alloca ptr, align 8
  %4 = alloca ptr, align 8
  %5 = alloca ptr, align 8
  %6 = alloca i64, align 8
  %7 = alloca [80 x i8], align 16
  %8 = alloca i64, align 8
  call void @llvm.lifetime.start.p0(i64 4, ptr %1) #6
  store i32 0, ptr %1, align 4, !tbaa !9
  call void @llvm.lifetime.start.p0(i64 8, ptr %2) #6
  %9 = call ptr @OSSL_QUIC_client_method()
  %10 = call ptr @SSL_CTX_new(ptr noundef %9)
  store ptr %10, ptr %2, align 8, !tbaa !11
  call void @llvm.lifetime.start.p0(i64 8, ptr %3) #6
  store ptr null, ptr %3, align 8, !tbaa !13
  call void @llvm.lifetime.start.p0(i64 8, ptr %4) #6
  store ptr null, ptr %4, align 8, !tbaa !15
  call void @llvm.lifetime.start.p0(i64 8, ptr %5) #6
  store ptr @.str.23, ptr %5, align 8, !tbaa !4
  call void @llvm.lifetime.start.p0(i64 8, ptr %6) #6
  %11 = load ptr, ptr %5, align 8, !tbaa !4
  %12 = call i64 @strlen(ptr noundef %11) #7
  store i64 %12, ptr %6, align 8, !tbaa !17
  call void @llvm.lifetime.start.p0(i64 80, ptr %7) #6
  call void @llvm.lifetime.start.p0(i64 8, ptr %8) #6
  %13 = load ptr, ptr %2, align 8, !tbaa !11
  %14 = call i32 @test_ptr(ptr noundef @.str.14, i32 noundef 34, ptr noundef @.str.24, ptr noundef %13)
  %15 = icmp ne i32 %14, 0
  br i1 %15, label %17, label %16

16:                                               ; preds = %0
  br label %67

17:                                               ; preds = %0
  %18 = load ptr, ptr %2, align 8, !tbaa !11
  %19 = load ptr, ptr @cert, align 8, !tbaa !4
  %20 = load ptr, ptr @privkey, align 8, !tbaa !4
  %21 = call i32 @qtest_create_quic_objects(ptr noundef null, ptr noundef %18, ptr noundef null, ptr noundef %19, ptr noundef %20, i32 noundef 0, ptr noundef %3, ptr noundef %4, ptr noundef null, ptr noundef null)
  %22 = icmp ne i32 %21, 0
  %23 = zext i1 %22 to i32
  %24 = call i32 @test_true(ptr noundef @.str.14, i32 noundef 38, ptr noundef @.str.25, i32 noundef %23)
  %25 = icmp ne i32 %24, 0
  br i1 %25, label %27, label %26

26:                                               ; preds = %17
  br label %67

27:                                               ; preds = %17
  %28 = load ptr, ptr %3, align 8, !tbaa !13
  %29 = load ptr, ptr %4, align 8, !tbaa !15
  %30 = call i32 @qtest_create_quic_connection(ptr noundef %28, ptr noundef %29)
  %31 = icmp ne i32 %30, 0
  %32 = zext i1 %31 to i32
  %33 = call i32 @test_true(ptr noundef @.str.14, i32 noundef 41, ptr noundef @.str.26, i32 noundef %32)
  %34 = icmp ne i32 %33, 0
  br i1 %34, label %36, label %35

35:                                               ; preds = %27
  br label %67

36:                                               ; preds = %27
  %37 = load ptr, ptr %4, align 8, !tbaa !15
  %38 = load ptr, ptr %5, align 8, !tbaa !4
  %39 = load i64, ptr %6, align 8, !tbaa !17
  %40 = trunc i64 %39 to i32
  %41 = call i32 @SSL_write(ptr noundef %37, ptr noundef %38, i32 noundef %40)
  %42 = load i64, ptr %6, align 8, !tbaa !17
  %43 = trunc i64 %42 to i32
  %44 = call i32 @test_int_eq(ptr noundef @.str.14, i32 noundef 44, ptr noundef @.str.27, ptr noundef @.str.28, i32 noundef %41, i32 noundef %43)
  %45 = icmp ne i32 %44, 0
  br i1 %45, label %47, label %46

46:                                               ; preds = %36
  br label %67

47:                                               ; preds = %36
  %48 = load ptr, ptr %3, align 8, !tbaa !13
  %49 = call i32 @ossl_quic_tserver_tick(ptr noundef %48)
  %50 = load ptr, ptr %3, align 8, !tbaa !13
  %51 = getelementptr inbounds [80 x i8], ptr %7, i64 0, i64 0
  %52 = call i32 @ossl_quic_tserver_read(ptr noundef %50, i64 noundef 0, ptr noundef %51, i64 noundef 80, ptr noundef %8)
  %53 = icmp ne i32 %52, 0
  %54 = zext i1 %53 to i32
  %55 = call i32 @test_true(ptr noundef @.str.14, i32 noundef 48, ptr noundef @.str.29, i32 noundef %54)
  %56 = icmp ne i32 %55, 0
  br i1 %56, label %58, label %57

57:                                               ; preds = %47
  br label %67

58:                                               ; preds = %47
  %59 = load ptr, ptr %5, align 8, !tbaa !4
  %60 = load i64, ptr %6, align 8, !tbaa !17
  %61 = getelementptr inbounds [80 x i8], ptr %7, i64 0, i64 0
  %62 = load i64, ptr %8, align 8, !tbaa !17
  %63 = call i32 @test_mem_eq(ptr noundef @.str.14, i32 noundef 56, ptr noundef @.str.30, ptr noundef @.str.31, ptr noundef %59, i64 noundef %60, ptr noundef %61, i64 noundef %62)
  %64 = icmp ne i32 %63, 0
  br i1 %64, label %66, label %65

65:                                               ; preds = %58
  br label %67

66:                                               ; preds = %58
  store i32 1, ptr %1, align 4, !tbaa !9
  br label %67

67:                                               ; preds = %66, %65, %57, %46, %35, %26, %16
  %68 = load ptr, ptr %4, align 8, !tbaa !15
  call void @SSL_free(ptr noundef %68)
  %69 = load ptr, ptr %3, align 8, !tbaa !13
  call void @ossl_quic_tserver_free(ptr noundef %69)
  %70 = load ptr, ptr %2, align 8, !tbaa !11
  call void @SSL_CTX_free(ptr noundef %70)
  %71 = load i32, ptr %1, align 4, !tbaa !9
  call void @llvm.lifetime.end.p0(i64 8, ptr %8) #6
  call void @llvm.lifetime.end.p0(i64 80, ptr %7) #6
  call void @llvm.lifetime.end.p0(i64 8, ptr %6) #6
  call void @llvm.lifetime.end.p0(i64 8, ptr %5) #6
  call void @llvm.lifetime.end.p0(i64 8, ptr %4) #6
  call void @llvm.lifetime.end.p0(i64 8, ptr %3) #6
  call void @llvm.lifetime.end.p0(i64 8, ptr %2) #6
  call void @llvm.lifetime.end.p0(i64 4, ptr %1) #6
  ret i32 %71
}