; Function Attrs: nounwind uwtable
define internal range(i32 0, 2) i32 @test_basic() #1 {
  %1 = alloca ptr, align 8
  %2 = alloca ptr, align 8
  %3 = alloca [80 x i8], align 16
  %4 = alloca i64, align 8
  %5 = tail call ptr @OSSL_QUIC_client_method() #4
  %6 = tail call ptr @SSL_CTX_new(ptr noundef %5) #4
  call void @llvm.lifetime.start.p0(i64 8, ptr nonnull %1) #4
  store ptr null, ptr %1, align 8, !tbaa !9
  call void @llvm.lifetime.start.p0(i64 8, ptr nonnull %2) #4
  store ptr null, ptr %2, align 8, !tbaa !11
  call void @llvm.lifetime.start.p0(i64 80, ptr nonnull %3) #4
  call void @llvm.lifetime.start.p0(i64 8, ptr nonnull %4) #4
  %7 = tail call i32 @test_ptr(ptr noundef nonnull @.str.14, i32 noundef 34, ptr noundef nonnull @.str.24, ptr noundef %6) #4
  %.not = icmp eq i32 %7, 0
  br i1 %.not, label %37, label %8

8:                                                ; preds = %0
  %9 = load ptr, ptr @cert, align 8, !tbaa !4
  %10 = load ptr, ptr @privkey, align 8, !tbaa !4
  %11 = call i32 @qtest_create_quic_objects(ptr noundef null, ptr noundef %6, ptr noundef null, ptr noundef %9, ptr noundef %10, i32 noundef 0, ptr noundef nonnull %1, ptr noundef nonnull %2, ptr noundef null, ptr noundef null) #4
  %12 = icmp ne i32 %11, 0
  %13 = zext i1 %12 to i32
  %14 = call i32 @test_true(ptr noundef nonnull @.str.14, i32 noundef 38, ptr noundef nonnull @.str.25, i32 noundef %13) #4
  %.not9 = icmp eq i32 %14, 0
  br i1 %.not9, label %37, label %15

15:                                               ; preds = %8
  %16 = load ptr, ptr %1, align 8, !tbaa !9
  %17 = load ptr, ptr %2, align 8, !tbaa !11
  %18 = call i32 @qtest_create_quic_connection(ptr noundef %16, ptr noundef %17) #4
  %19 = icmp ne i32 %18, 0
  %20 = zext i1 %19 to i32
  %21 = call i32 @test_true(ptr noundef nonnull @.str.14, i32 noundef 41, ptr noundef nonnull @.str.26, i32 noundef %20) #4
  %.not10 = icmp eq i32 %21, 0
  br i1 %.not10, label %37, label %22

22:                                               ; preds = %15
  %23 = load ptr, ptr %2, align 8, !tbaa !11
  %24 = call i32 @SSL_write(ptr noundef %23, ptr noundef nonnull @.str.23, i32 noundef 12) #4
  %25 = call i32 @test_int_eq(ptr noundef nonnull @.str.14, i32 noundef 44, ptr noundef nonnull @.str.27, ptr noundef nonnull @.str.28, i32 noundef %24, i32 noundef 12) #4
  %.not11 = icmp eq i32 %25, 0
  br i1 %.not11, label %37, label %26

26:                                               ; preds = %22
  %27 = load ptr, ptr %1, align 8, !tbaa !9
  %28 = call i32 @ossl_quic_tserver_tick(ptr noundef %27) #4
  %29 = load ptr, ptr %1, align 8, !tbaa !9
  %30 = call i32 @ossl_quic_tserver_read(ptr noundef %29, i64 noundef 0, ptr noundef nonnull %3, i64 noundef 80, ptr noundef nonnull %4) #4
  %31 = icmp ne i32 %30, 0
  %32 = zext i1 %31 to i32
  %33 = call i32 @test_true(ptr noundef nonnull @.str.14, i32 noundef 48, ptr noundef nonnull @.str.29, i32 noundef %32) #4
  %.not12 = icmp eq i32 %33, 0
  br i1 %.not12, label %37, label %34

34:                                               ; preds = %26
  %35 = load i64, ptr %4, align 8, !tbaa !13
  %36 = call i32 @test_mem_eq(ptr noundef nonnull @.str.14, i32 noundef 56, ptr noundef nonnull @.str.30, ptr noundef nonnull @.str.31, ptr noundef nonnull @.str.23, i64 noundef 12, ptr noundef nonnull %3, i64 noundef %35) #4
  %.not13 = icmp ne i32 %36, 0
  %spec.select = zext i1 %.not13 to i32
  br label %37

37:                                               ; preds = %34, %26, %22, %15, %8, %0
  %.0 = phi i32 [ 0, %26 ], [ 0, %22 ], [ 0, %15 ], [ 0, %8 ], [ 0, %0 ], [ %spec.select, %34 ]
  %38 = load ptr, ptr %2, align 8, !tbaa !11
  call void @SSL_free(ptr noundef %38) #4
  %39 = load ptr, ptr %1, align 8, !tbaa !9
  call void @ossl_quic_tserver_free(ptr noundef %39) #4
  call void @SSL_CTX_free(ptr noundef %6) #4
  call void @llvm.lifetime.end.p0(i64 8, ptr nonnull %4) #4
  call void @llvm.lifetime.end.p0(i64 80, ptr nonnull %3) #4
  call void @llvm.lifetime.end.p0(i64 8, ptr nonnull %2) #4
  call void @llvm.lifetime.end.p0(i64 8, ptr nonnull %1) #4
  ret i32 %.0
}